; Function Attrs: mustprogress nounwind uwtable
define hidden noundef i32 @_ZN10LinearScan7reg_numE7LIR_Opr(i64 %0) local_unnamed_addr #0 align 2 {
  %2 = and i64 %0, 4096
  %.not = icmp eq i64 %2, 0
  br i1 %.not, label %6, label %3

3:                                                ; preds = %1
  %4 = trunc i64 %0 to i32
  %5 = lshr i32 %4, 14
  br label %38

6:                                                ; preds = %1
  %7 = and i64 %0, 391
  switch i64 %7, label %15 [
    i64 3, label %8
    i64 131, label %11
  ]

8:                                                ; preds = %6
  %9 = trunc i64 %0 to i32
  %10 = lshr i32 %9, 14
  br label %38

11:                                               ; preds = %6
  %12 = trunc i64 %0 to i32
  %13 = lshr i32 %12, 14
  %14 = and i32 %13, 511
  br label %38

15:                                               ; preds = %6
  %16 = and i64 %0, 8583
  switch i64 %16, label %26 [
    i64 8197, label %17
    i64 8325, label %21
  ]

17:                                               ; preds = %15
  %18 = trunc i64 %0 to i32
  %19 = lshr i32 %18, 14
  %20 = add nuw nsw i32 %19, 24
  br label %38

21:                                               ; preds = %15
  %22 = trunc i64 %0 to i32
  %23 = lshr i32 %22, 14
  %24 = and i32 %23, 511
  %25 = add nuw nsw i32 %24, 24
  br label %38

26:                                               ; preds = %15
  switch i64 %7, label %36 [
    i64 5, label %27
    i64 133, label %31
  ]

27:                                               ; preds = %26
  %28 = trunc i64 %0 to i32
  %29 = lshr i32 %28, 14
  %30 = add nuw nsw i32 %29, 16
  br label %38

31:                                               ; preds = %26
  %32 = trunc i64 %0 to i32
  %33 = lshr i32 %32, 14
  %34 = and i32 %33, 511
  %35 = add nuw nsw i32 %34, 16
  br label %38

36:                                               ; preds = %26
  %37 = load ptr, ptr @g_assert_poison, align 8
  store i8 88, ptr %37, align 1
  tail call void @_Z28report_should_not_reach_herePKci(ptr noundef nonnull @.str, i32 noundef 138) #23
  unreachable

38:                                               ; preds = %31, %27, %21, %17, %11, %8, %3
  %.0 = phi i32 [ %5, %3 ], [ %10, %8 ], [ %14, %11 ], [ %20, %17 ], [ %25, %21 ], [ %30, %27 ], [ %35, %31 ]
  ret i32 %.0
}